target datalayout = "e-m:e-p270:32:32-p271:32:32-p272:64:64-i64:64-i128:128-f80:128-n8:16:32:64-S128"
target triple = "x86_64-unknown-linux-gnu"

%"struct.std::atomic" = type { %"struct.std::__atomic_base" }
%"struct.std::__atomic_base" = type { i64 }
%"class.absl::lts_20230802::Mutex" = type { %"struct.std::atomic" }
%"class.grpc_core::Orphanable" = type { ptr }
%"class.grpc_core::promise_detail::FreestandingActivity" = type { %"class.grpc_core::Activity", %"class.grpc_core::Wakeable", %"class.absl::lts_20230802::Mutex", %"struct.std::atomic.98", i8, ptr }
%"class.grpc_core::Activity" = type { %"class.grpc_core::Orphanable" }
%"class.grpc_core::Wakeable" = type { ptr }
%"struct.std::atomic.98" = type { %"struct.std::__atomic_base.99" }
%"struct.std::__atomic_base.99" = type { i32 }

; Function Attrs: mustprogress nounwind uwtable
define linkonce_odr void @_ZN9grpc_core14promise_detail20FreestandingActivity5UnrefEv(ptr noundef nonnull align 8 dereferenceable(40) %this) #4 comdat align 2 {
entry:
  %this.addr.i = alloca ptr, align 8
  %__i.addr.i = alloca i32, align 4
  %__m.addr.i = alloca i32, align 4
  %.atomictmp.i = alloca i32, align 4
  %atomic-temp.i = alloca i32, align 4
  %this.addr = alloca ptr, align 8
  store ptr %this, ptr %this.addr, align 8
  %this1 = load ptr, ptr %this.addr, align 8
  %refs_ = getelementptr inbounds %"class.grpc_core::promise_detail::FreestandingActivity", ptr %this1, i32 0, i32 3
  store ptr %refs_, ptr %this.addr.i, align 8
  store i32 1, ptr %__i.addr.i, align 4
  store i32 4, ptr %__m.addr.i, align 4
  %this1.i = load ptr, ptr %this.addr.i, align 8
  %0 = load i32, ptr %__m.addr.i, align 4
  %1 = load i32, ptr %__i.addr.i, align 4
  store i32 %1, ptr %.atomictmp.i, align 4
  switch i32 %0, label %monotonic.i [
    i32 1, label %acquire.i
    i32 2, label %acquire.i
    i32 3, label %release.i
    i32 4, label %acqrel.i
    i32 5, label %seqcst.i
  ]

monotonic.i:                                      ; preds = %entry
  %2 = load i32, ptr %.atomictmp.i, align 4
  %3 = atomicrmw sub ptr %this1.i, i32 %2 monotonic, align 4
  store i32 %3, ptr %atomic-temp.i, align 4
  br label %_ZNSt13__atomic_baseIjE9fetch_subEjSt12memory_order.exit

acquire.i:                                        ; preds = %entry, %entry
  %4 = load i32, ptr %.atomictmp.i, align 4
  %5 = atomicrmw sub ptr %this1.i, i32 %4 acquire, align 4
  store i32 %5, ptr %atomic-temp.i, align 4
  br label %_ZNSt13__atomic_baseIjE9fetch_subEjSt12memory_order.exit

release.i:                                        ; preds = %entry
  %6 = load i32, ptr %.atomictmp.i, align 4
  %7 = atomicrmw sub ptr %this1.i, i32 %6 release, align 4
  store i32 %7, ptr %atomic-temp.i, align 4
  br label %_ZNSt13__atomic_baseIjE9fetch_subEjSt12memory_order.exit

acqrel.i:                                         ; preds = %entry
  %8 = load i32, ptr %.atomictmp.i, align 4
  %9 = atomicrmw sub ptr %this1.i, i32 %8 acq_rel, align 4
  store i32 %9, ptr %atomic-temp.i, align 4
  br label %_ZNSt13__atomic_baseIjE9fetch_subEjSt12memory_order.exit

seqcst.i:                                         ; preds = %entry
  %10 = load i32, ptr %.atomictmp.i, align 4
  %11 = atomicrmw sub ptr %this1.i, i32 %10 seq_cst, align 4
  store i32 %11, ptr %atomic-temp.i, align 4
  br label %_ZNSt13__atomic_baseIjE9fetch_subEjSt12memory_order.exit

_ZNSt13__atomic_baseIjE9fetch_subEjSt12memory_order.exit: ; preds = %seqcst.i, %acqrel.i, %release.i, %acquire.i, %monotonic.i
  %12 = load i32, ptr %atomic-temp.i, align 4
  %cmp = icmp eq i32 1, %12
  br i1 %cmp, label %if.then, label %if.end

if.then:                                          ; preds = %_ZNSt13__atomic_baseIjE9fetch_subEjSt12memory_order.exit
  %isnull = icmp eq ptr %this1, null
  br i1 %isnull, label %delete.end, label %delete.notnull

delete.notnull:                                   ; preds = %if.then
  %vtable = load ptr, ptr %this1, align 8
  %vfn = getelementptr inbounds ptr, ptr %vtable, i64 2
  %13 = load ptr, ptr %vfn, align 8
  call void %13(ptr noundef nonnull align 8 dereferenceable(40) %this1) #3
  br label %delete.end

delete.end:                                       ; preds = %delete.notnull, %if.then
  br label %if.end

if.end:                                           ; preds = %delete.end, %_ZNSt13__atomic_baseIjE9fetch_subEjSt12memory_order.exit
  ret void
}

; Function Attrs: mustprogress nounwind uwtable
define linkonce_odr void @_ZN9grpc_core14promise_detail20FreestandingActivity14WakeupCompleteEv(ptr noundef nonnull align 8 dereferenceable(40) %this) #4 comdat align 2 {
entry:
  %this.addr = alloca ptr, align 8
  store ptr %this, ptr %this.addr, align 8
  %this1 = load ptr, ptr %this.addr, align 8
  call void @_ZN9grpc_core14promise_detail20FreestandingActivity5UnrefEv(ptr noundef nonnull align 8 dereferenceable(40) %this1)
  ret void
}

; Function Attrs: mustprogress nounwind uwtable
define internal void @"_ZN9grpc_core14promise_detail15PromiseActivityINS0_4LoopINS0_3SeqIZNS_16BasicMemoryQuota5StartEvE3$_1JZNS4_5StartEvE3$_0ZNS4_5StartEvE3$_2ZNS4_5StartEvE3$_3EEEEENS_22ExecCtxWakeupSchedulerEZNS4_5StartEvE3$_4JEE4DropEt"(ptr noundef nonnull align 8 dereferenceable(232) %this, i16 noundef zeroext %0) unnamed_addr #4 align 2 {
entry:
  %this.addr = alloca ptr, align 8
  %.addr = alloca i16, align 2
  store ptr %this, ptr %this.addr, align 8
  store i16 %0, ptr %.addr, align 2
  %this1 = load ptr, ptr %this.addr, align 8
  call void @_ZN9grpc_core14promise_detail20FreestandingActivity14WakeupCompleteEv(ptr noundef nonnull align 8 dereferenceable(40) %this1)
  ret void
}